; Function Attrs: mustprogress uwtable
define hidden void @_ZN3sat3bcd10init_rbitsEv(ptr noundef nonnull align 8 dereferenceable(80) %0) local_unnamed_addr #5 align 2 {
  %2 = getelementptr inbounds nuw i8, ptr %0, i64 56
  %3 = load ptr, ptr %2, align 8, !tbaa !28
  %.not.i = icmp eq ptr %3, null
  br i1 %.not.i, label %_ZN6vectorImLb0EjE5resetEv.exit.preheader, label %4

4:                                                ; preds = %1
  %5 = getelementptr inbounds i8, ptr %3, i64 -4
  store i32 0, ptr %5, align 4, !tbaa !24
  br label %_ZN6vectorImLb0EjE5resetEv.exit.preheader

_ZN6vectorImLb0EjE5resetEv.exit.preheader:        ; preds = %1, %4
  br label %_ZN6vectorImLb0EjE5resetEv.exit

_ZN6vectorImLb0EjE5resetEv.exit:                  ; preds = %_ZN6vectorImLb0EjE5resetEv.exit.preheader, %_ZN6vectorImLb0EjE9push_backEOm.exit
  %6 = phi ptr [ %47, %_ZN6vectorImLb0EjE9push_backEOm.exit ], [ %3, %_ZN6vectorImLb0EjE5resetEv.exit.preheader ]
  %.0 = phi i32 [ %53, %_ZN6vectorImLb0EjE9push_backEOm.exit ], [ 0, %_ZN6vectorImLb0EjE5resetEv.exit.preheader ]
  %7 = load ptr, ptr %0, align 8, !tbaa !8
  %8 = getelementptr inbounds nuw i8, ptr %7, i64 3296
  %9 = load ptr, ptr %8, align 8, !tbaa !34
  %10 = icmp eq ptr %9, null
  br i1 %10, label %_ZNK3sat6solver8num_varsEv.exit, label %11

11:                                               ; preds = %_ZN6vectorImLb0EjE5resetEv.exit
  %12 = getelementptr inbounds i8, ptr %9, i64 -4
  %13 = load i32, ptr %12, align 4, !tbaa !24
  br label %_ZNK3sat6solver8num_varsEv.exit

_ZNK3sat6solver8num_varsEv.exit:                  ; preds = %_ZN6vectorImLb0EjE5resetEv.exit, %11
  %.0.i.i = phi i32 [ %13, %11 ], [ 0, %_ZN6vectorImLb0EjE5resetEv.exit ]
  %14 = icmp ult i32 %.0, %.0.i.i
  br i1 %14, label %16, label %15

15:                                               ; preds = %_ZNK3sat6solver8num_varsEv.exit
  ret void

16:                                               ; preds = %_ZNK3sat6solver8num_varsEv.exit
  %17 = getelementptr inbounds nuw i8, ptr %7, i64 2356
  %18 = load i32, ptr %17, align 4, !tbaa !41
  %19 = mul i32 %18, 214013
  %20 = add i32 %19, 2531011
  %21 = lshr i32 %20, 16
  %22 = and i32 %21, 32767
  %23 = mul i32 %20, 214013
  %24 = add i32 %23, 2531011
  %25 = and i32 %24, 2147418112
  %26 = or disjoint i32 %25, %22
  %27 = zext nneg i32 %26 to i64
  %28 = mul i32 %24, 214013
  %29 = add i32 %28, 2531011
  %30 = lshr i32 %29, 16
  %31 = and i32 %30, 32767
  %32 = mul i32 %29, 214013
  %33 = add i32 %32, 2531011
  store i32 %33, ptr %17, align 4, !tbaa !41
  %34 = and i32 %33, 2147418112
  %35 = or disjoint i32 %34, %31
  %36 = zext nneg i32 %35 to i64
  %37 = shl nuw nsw i64 %36, 32
  %38 = or disjoint i64 %37, %27
  %39 = icmp eq ptr %6, null
  br i1 %39, label %46, label %40

40:                                               ; preds = %16
  %41 = getelementptr inbounds i8, ptr %6, i64 -4
  %42 = load i32, ptr %41, align 4, !tbaa !24
  %43 = getelementptr inbounds i8, ptr %6, i64 -8
  %44 = load i32, ptr %43, align 4, !tbaa !24
  %45 = icmp eq i32 %42, %44
  br i1 %45, label %46, label %_ZN6vectorImLb0EjE9push_backEOm.exit

46:                                               ; preds = %40, %16
  tail call void @_ZN6vectorImLb0EjE13expand_vectorEv(ptr noundef nonnull align 8 dereferenceable(8) %2)
  %.pre.i = load ptr, ptr %2, align 8, !tbaa !28
  %.phi.trans.insert.i = getelementptr inbounds i8, ptr %.pre.i, i64 -4
  %.pre2.i = load i32, ptr %.phi.trans.insert.i, align 4, !tbaa !24
  br label %_ZN6vectorImLb0EjE9push_backEOm.exit

_ZN6vectorImLb0EjE9push_backEOm.exit:             ; preds = %40, %46
  %47 = phi ptr [ %.pre.i, %46 ], [ %6, %40 ]
  %48 = phi i32 [ %.pre2.i, %46 ], [ %42, %40 ]
  %49 = getelementptr inbounds i8, ptr %47, i64 -4
  %50 = zext i32 %48 to i64
  %51 = getelementptr inbounds nuw i64, ptr %47, i64 %50
  store i64 %38, ptr %51, align 8, !tbaa !76
  %52 = add i32 %48, 1
  store i32 %52, ptr %49, align 4, !tbaa !24
  %53 = add nuw i32 %.0, 1
  br label %_ZN6vectorImLb0EjE5resetEv.exit, !llvm.loop !77
}